; Function Attrs: nofree norecurse nosync nounwind memory(argmem: readwrite) uwtable
define void @H5VM_array_down(i32 noundef %0, ptr nocapture noundef readonly %1, ptr nocapture noundef writeonly %2) local_unnamed_addr #5 {
  %.09 = add i32 %0, -1
  %4 = icmp sgt i32 %.09, -1
  br i1 %4, label %.lr.ph.preheader, label %._crit_edge

.lr.ph.preheader:                                 ; preds = %3
  %5 = zext nneg i32 %.09 to i64
  br label %.lr.ph

.lr.ph:                                           ; preds = %.lr.ph.preheader, %.lr.ph
  %indvars.iv = phi i64 [ %5, %.lr.ph.preheader ], [ %indvars.iv.next, %.lr.ph ]
  %.0810 = phi i64 [ 1, %.lr.ph.preheader ], [ %9, %.lr.ph ]
  %6 = getelementptr inbounds i64, ptr %2, i64 %indvars.iv
  store i64 %.0810, ptr %6, align 8
  %7 = getelementptr inbounds i64, ptr %1, i64 %indvars.iv
  %8 = load i64, ptr %7, align 8
  %9 = mul i64 %8, %.0810
  %indvars.iv.next = add nsw i64 %indvars.iv, -1
  %.not = icmp eq i64 %indvars.iv, 0
  br i1 %.not, label %._crit_edge, label %.lr.ph

._crit_edge:                                      ; preds = %.lr.ph, %3
  ret void
}